Certificate:
    Data:
        Version: 1 (0x0)
        Serial Number: 3 (0x3)
    Signature Algorithm: md5WithRSAEncryption
        Issuer: C=US, ST=CA, O=Open vSwitch, OU=switchca, CN=OVS switchca CA Certificate (2014 Apr 10 15:51:50)
        Validity
            Not Before: Apr 10 13:51:52 2014 GMT
            Not After : Apr  7 13:51:52 2024 GMT
        Subject: C=US, ST=CA, O=Open vSwitch, OU=Open vSwitch certifier, CN=tests/pki/test2 id:9e028b60-e1de-46d7-b02c-20e118b45160
        Subject Public Key Info:
            Public Key Algorithm: rsaEncryption
                Public-Key: (2048 bit)
                Modulus:
                    00:bd:fc:ca:2c:9d:f1:88:d8:85:8f:3e:7b:3a:8c:
                    df:58:2b:4b:3b:a2:d9:62:df:ed:ae:50:6a:39:81:
                    52:23:44:d0:95:07:26:3a:17:13:6a:fd:a1:1e:47:
                    8e:4c:18:5f:62:dc:e7:1d:a6:a6:12:3c:6c:68:0e:
                    05:29:b5:7e:29:76:82:50:95:34:d3:10:98:86:38:
                    ab:8d:d8:2c:40:c7:de:bb:27:8d:1c:e5:ca:1c:a2:
                    00:e4:a7:73:be:a2:95:3d:6a:91:a4:f9:52:32:9d:
                    e5:07:c6:30:07:00:1a:95:4e:28:1b:51:25:6a:e0:
                    85:94:03:15:92:90:00:10:5d:32:0e:de:a8:22:00:
                    0f:53:8b:94:40:77:d9:ca:8d:f3:7c:49:3c:b3:7c:
                    26:86:cc:ce:a1:43:4a:28:0a:f4:cc:e2:9f:b2:7d:
                    15:43:47:5d:ad:20:ee:59:a0:c3:1e:dc:31:ec:72:
                    c5:e6:1b:0f:93:7e:13:a8:7d:95:00:5a:fe:cc:1e:
                    1e:dd:00:bb:ff:4c:40:3d:b9:67:96:63:cb:70:0a:
                    32:76:87:bc:b8:3e:1a:f8:1b:8f:4e:3d:0e:d7:c6:
                    e5:82:52:33:d9:c5:31:92:91:f1:9b:49:83:58:38:
                    21:60:ee:66:ee:81:1d:5c:15:b4:d9:36:cf:09:55:
                    d3:5f
                Exponent: 65537 (0x10001)
    Signature Algorithm: md5WithRSAEncryption
         9c:ff:e8:c0:cc:f1:ef:e7:bf:e1:30:11:78:fa:6c:fe:7b:75:
         3b:89:5b:7a:17:c6:9d:21:c9:b7:a8:4a:47:18:7b:19:23:45:
         fa:3c:39:6b:3b:84:cc:5e:62:65:f6:36:47:aa:c6:7f:f0:11:
         1a:10:ff:eb:1d:4b:40:bd:66:18:0a:66:c0:4f:f2:16:92:cb:
         d7:01:f9:13:27:89:58:d5:a9:ad:1b:b5:54:c0:74:78:92:d9:
         62:c3:78:c4:19:20:b1:24:5e:45:fd:d3:62:97:c2:29:0b:5d:
         1a:93:f4:85:4b:5c:84:7e:c9:d2:bb:58:36:81:07:74:60:fa:
         40:93:36:3f:ed:60:d7:0b:4a:c6:3c:f6:20:05:eb:05:8b:2f:
         b6:f2:32:0b:55:5c:18:5f:32:b8:e5:d4:77:5d:c9:b0:99:84:
         3d:3b:60:d8:2d:c7:e8:f8:1a:26:bb:5a:98:f2:de:c9:6c:12:
         ac:53:7b:4f:a8:9c:34:d2:db:87:f2:cd:9e:e0:cc:68:3a:be:
         6c:aa:77:79:79:7a:b9:f1:6d:92:46:0f:bd:19:48:c9:fa:51:
         05:74:1b:43:66:f5:89:fe:5a:aa:6a:38:ff:61:2f:60:65:41:
         e4:a2:72:fe:2f:36:cd:ae:2f:2b:29:53:2d:78:1d:9f:48:be:
         e9:d3:d8:71
-----BEGIN CERTIFICATE-----
MIIDizCCAnMCAQMwDQYJKoZIhvcNAQEEBQAwgYExCzAJBgNVBAYTAlVTMQswCQYD
VQQIEwJDQTEVMBMGA1UEChMMT3BlbiB2U3dpdGNoMREwDwYDVQQLEwhzd2l0Y2hj
YTE7MDkGA1UEAxMyT1ZTIHN3aXRjaGNhIENBIENlcnRpZmljYXRlICgyMDE0IEFw
ciAxMCAxNTo1MTo1MCkwHhcNMTQwNDEwMTM1MTUyWhcNMjQwNDA3MTM1MTUyWjCB
lDELMAkGA1UEBhMCVVMxCzAJBgNVBAgTAkNBMRUwEwYDVQQKEwxPcGVuIHZTd2l0
Y2gxHzAdBgNVBAsTFk9wZW4gdlN3aXRjaCBjZXJ0aWZpZXIxQDA+BgNVBAMTN3Rl
c3RzL3BraS90ZXN0MiBpZDo5ZTAyOGI2MC1lMWRlLTQ2ZDctYjAyYy0yMGUxMThi
NDUxNjAwggEiMA0GCSqGSIb3DQEBAQUAA4IBDwAwggEKAoIBAQC9/MosnfGI2IWP
Pns6jN9YK0s7otli3+2uUGo5gVIjRNCVByY6FxNq/aEeR45MGF9i3OcdpqYSPGxo
DgUptX4pdoJQlTTTEJiGOKuN2CxAx967J40c5cocogDkp3O+opU9apGk+VIyneUH
xjAHABqVTigbUSVq4IWUAxWSkAAQXTIO3qgiAA9Ti5RAd9nKjfN8STyzfCaGzM6h
Q0ooCvTM4p+yfRVDR12tIO5ZoMMe3DHscsXmGw+TfhOofZUAWv7MHh7dALv/TEA9
uWeWY8twCjJ2h7y4Phr4G49OPQ7XxuWCUjPZxTGSkfGbSYNYOCFg7mbugR1cFbTZ
Ns8JVdNfAgMBAAEwDQYJKoZIhvcNAQEEBQADggEBAJz/6MDM8e/nv+EwEXj6bP57
dTuJW3oXxp0hybeoSkcYexkjRfo8OWs7hMxeYmX2Nkeqxn/wERoQ/+sdS0C9ZhgK
ZsBP8haSy9cB+RMniVjVqa0btVTAdHiS2WLDeMQZILEkXkX902KXwikLXRqT9IVL
XIR+ydK7WDaBB3Rg+kCTNj/tYNcLSsY89iAF6wWLL7byMgtVXBhfMrjl1HddybCZ
hD07YNgtx+j4Gia7Wpjy3slsEqxTe0+onDTS24fyzZ7gzGg6vmyqd3l5ernxbZJG
D70ZSMn6UQV0G0Nm9Yn+WqpqOP9hL2BlQeSicv4vNs2uLyspUy14HZ9IvunT2HE=
-----END CERTIFICATE-----
