Certificate Request:
    Data:
        Version: 0 (0x0)
        Subject: C=US, ST=CA, L=Palo Alto, O=Open vSwitch, OU=Open vSwitch certifier, CN=tests/pki/test id:7f8482b6-c12a-47f1-b07e-cb585ddb27a9
        Subject Public Key Info:
            Public Key Algorithm: rsaEncryption
                Public-Key: (2048 bit)
                Modulus:
                    00:ac:33:70:0f:08:22:68:e0:64:20:a1:a8:82:56:
                    57:bd:cc:b2:09:d7:b7:21:32:e9:8d:aa:9e:1a:a6:
                    6b:57:5c:70:be:00:7a:93:bd:e3:1b:82:93:0e:b5:
                    45:d9:a0:6e:25:b5:0c:9b:2e:4f:ac:49:6b:53:18:
                    b9:9f:80:19:7f:da:6b:4b:ca:04:5c:96:16:29:ad:
                    16:b3:ab:b1:00:7b:e4:68:47:3f:f9:b5:bd:bc:a0:
                    54:12:a1:73:a9:fe:bd:72:fa:23:e6:39:75:4a:55:
                    76:1d:e3:99:c9:a0:16:3c:ec:c4:a9:56:63:40:42:
                    b3:a1:3f:3a:99:6f:3e:73:21:83:98:96:d1:d6:8b:
                    c3:64:5c:10:b9:e7:1c:4f:04:e7:2a:39:41:c9:8f:
                    18:ab:05:9b:07:ee:29:c1:8e:09:98:c1:c5:e9:c4:
                    a2:fb:6f:36:63:29:79:25:21:3e:40:eb:01:1a:7f:
                    72:c7:4c:4b:f8:e1:5e:67:d6:a8:4f:bd:d6:86:39:
                    98:ae:e4:af:79:29:d4:5e:cc:80:e3:e5:ed:57:21:
                    25:97:ec:71:20:ee:8c:de:16:a0:8d:8b:f7:b3:3d:
                    90:35:83:9c:46:ee:c0:26:70:28:dd:59:84:94:ac:
                    73:04:d1:71:87:b5:68:d7:41:b0:c6:73:d3:19:bd:
                    f7:fd
                Exponent: 65537 (0x10001)
        Attributes:
            a0:00
    Signature Algorithm: sha1WithRSAEncryption
         7c:4d:ab:ea:52:d4:0f:92:f5:25:57:09:e8:77:e3:01:ea:0a:
         6c:56:77:1f:bf:a9:a8:f6:ca:69:d3:fe:3a:9b:5b:dc:ee:5c:
         03:54:97:c4:59:0f:3f:1c:ed:45:0a:8c:60:48:d7:0e:97:b0:
         e7:e2:11:69:93:bc:72:95:c0:d4:d8:9f:42:ee:90:02:b3:ce:
         3f:af:1c:db:e5:b5:15:86:01:d8:cc:5c:e8:16:b3:8b:16:0e:
         ec:9b:17:5e:fa:f6:19:68:eb:e4:8f:0b:2c:39:3c:49:ba:e3:
         35:96:e8:16:c2:c1:d5:38:21:24:05:66:e1:51:70:04:ff:f4:
         d9:8c:fd:74:af:f4:d0:54:43:b1:b5:30:b7:fa:50:c3:95:26:
         b6:e1:5c:03:72:e5:57:56:22:29:ba:72:35:5f:ec:53:05:b4:
         6a:11:b9:3c:9c:cd:10:9b:c7:fb:f5:79:f7:6f:50:58:e4:26:
         f1:4e:ab:c0:fa:c1:d3:4c:4d:c6:63:99:ce:e0:12:82:38:6a:
         86:aa:89:ea:08:c0:ce:50:b1:1d:16:1f:66:1d:b5:30:95:2e:
         32:8d:91:5f:7e:55:66:e8:b2:b0:04:ca:b7:82:31:ea:81:60:
         6b:cb:36:c1:62:84:4a:aa:f7:75:21:a9:69:f8:eb:8b:4f:ab:
         6b:32:cc:14
-----BEGIN CERTIFICATE REQUEST-----
MIIC7TCCAdUCAQAwgacxCzAJBgNVBAYTAlVTMQswCQYDVQQIEwJDQTESMBAGA1UE
BxMJUGFsbyBBbHRvMRUwEwYDVQQKEwxPcGVuIHZTd2l0Y2gxHzAdBgNVBAsTFk9w
ZW4gdlN3aXRjaCBjZXJ0aWZpZXIxPzA9BgNVBAMTNnRlc3RzL3BraS90ZXN0IGlk
OjdmODQ4MmI2LWMxMmEtNDdmMS1iMDdlLWNiNTg1ZGRiMjdhOTCCASIwDQYJKoZI
hvcNAQEBBQADggEPADCCAQoCggEBAKwzcA8IImjgZCChqIJWV73MsgnXtyEy6Y2q
nhqma1dccL4AepO94xuCkw61RdmgbiW1DJsuT6xJa1MYuZ+AGX/aa0vKBFyWFimt
FrOrsQB75GhHP/m1vbygVBKhc6n+vXL6I+Y5dUpVdh3jmcmgFjzsxKlWY0BCs6E/
OplvPnMhg5iW0daLw2RcELnnHE8E5yo5QcmPGKsFmwfuKcGOCZjBxenEovtvNmMp
eSUhPkDrARp/csdMS/jhXmfWqE+91oY5mK7kr3kp1F7MgOPl7VchJZfscSDujN4W
oI2L97M9kDWDnEbuwCZwKN1ZhJSscwTRcYe1aNdBsMZz0xm99/0CAwEAAaAAMA0G
CSqGSIb3DQEBBQUAA4IBAQB8TavqUtQPkvUlVwnod+MB6gpsVncfv6mo9spp0/46
m1vc7lwDVJfEWQ8/HO1FCoxgSNcOl7Dn4hFpk7xylcDU2J9C7pACs84/rxzb5bUV
hgHYzFzoFrOLFg7smxde+vYZaOvkjwssOTxJuuM1lugWwsHVOCEkBWbhUXAE//TZ
jP10r/TQVEOxtTC3+lDDlSa24VwDcuVXViIpunI1X+xTBbRqEbk8nM0Qm8f79Xn3
b1BY5CbxTqvA+sHTTE3GY5nO4BKCOGqGqonqCMDOULEdFh9mHbUwlS4yjZFfflVm
6LKwBMq3gjHqgWBryzbBYoRKqvd1Ialp+OuLT6trMswU
-----END CERTIFICATE REQUEST-----
