Certificate:
    Data:
        Version: 1 (0x0)
        Serial Number: 2 (0x2)
    Signature Algorithm: md5WithRSAEncryption
        Issuer: C=US, ST=CA, O=Open vSwitch, OU=switchca, CN=OVS switchca CA Certificate (2014 Apr 10 15:51:50)
        Validity
            Not Before: Apr 10 13:51:52 2014 GMT
            Not After : Apr  7 13:51:52 2024 GMT
        Subject: C=US, ST=CA, O=Open vSwitch, OU=Open vSwitch certifier, CN=tests/pki/test id:7f8482b6-c12a-47f1-b07e-cb585ddb27a9
        Subject Public Key Info:
            Public Key Algorithm: rsaEncryption
                Public-Key: (2048 bit)
                Modulus:
                    00:ac:33:70:0f:08:22:68:e0:64:20:a1:a8:82:56:
                    57:bd:cc:b2:09:d7:b7:21:32:e9:8d:aa:9e:1a:a6:
                    6b:57:5c:70:be:00:7a:93:bd:e3:1b:82:93:0e:b5:
                    45:d9:a0:6e:25:b5:0c:9b:2e:4f:ac:49:6b:53:18:
                    b9:9f:80:19:7f:da:6b:4b:ca:04:5c:96:16:29:ad:
                    16:b3:ab:b1:00:7b:e4:68:47:3f:f9:b5:bd:bc:a0:
                    54:12:a1:73:a9:fe:bd:72:fa:23:e6:39:75:4a:55:
                    76:1d:e3:99:c9:a0:16:3c:ec:c4:a9:56:63:40:42:
                    b3:a1:3f:3a:99:6f:3e:73:21:83:98:96:d1:d6:8b:
                    c3:64:5c:10:b9:e7:1c:4f:04:e7:2a:39:41:c9:8f:
                    18:ab:05:9b:07:ee:29:c1:8e:09:98:c1:c5:e9:c4:
                    a2:fb:6f:36:63:29:79:25:21:3e:40:eb:01:1a:7f:
                    72:c7:4c:4b:f8:e1:5e:67:d6:a8:4f:bd:d6:86:39:
                    98:ae:e4:af:79:29:d4:5e:cc:80:e3:e5:ed:57:21:
                    25:97:ec:71:20:ee:8c:de:16:a0:8d:8b:f7:b3:3d:
                    90:35:83:9c:46:ee:c0:26:70:28:dd:59:84:94:ac:
                    73:04:d1:71:87:b5:68:d7:41:b0:c6:73:d3:19:bd:
                    f7:fd
                Exponent: 65537 (0x10001)
    Signature Algorithm: md5WithRSAEncryption
         4a:1d:8d:69:fb:78:0c:63:b9:98:10:ff:55:a1:6e:25:79:cb:
         61:7f:0d:97:55:24:4f:f9:60:0e:e4:1d:a6:16:63:5f:25:1c:
         2d:41:a8:c1:47:73:ca:9d:43:6b:41:72:da:2f:b4:f0:61:4d:
         58:33:f1:34:83:ae:64:4a:80:b3:f7:02:86:1c:43:a4:8f:ef:
         43:25:9a:b2:01:68:7e:99:42:e3:dd:58:ea:42:84:1a:79:21:
         63:e9:c0:d2:4c:17:88:48:b9:4c:e3:1c:45:25:c9:68:5d:08:
         2f:65:61:84:b6:ae:40:a2:52:3e:dc:0f:cf:16:fc:6e:d3:f0:
         1f:a0:03:be:08:09:3c:dd:70:c5:95:33:a7:ba:0d:53:57:0a:
         fd:75:40:04:ba:3c:9f:62:48:75:bf:dc:c0:26:43:ac:80:92:
         42:be:82:ab:2b:0c:92:15:47:dc:68:ba:13:da:63:c5:c2:b8:
         08:ad:49:54:e1:4b:8b:9c:ec:19:a9:37:fb:b6:36:77:ad:80:
         dc:f0:67:cb:f5:b5:41:5f:da:f0:04:b8:44:0c:cf:ae:9c:61:
         0f:42:d9:ed:71:7d:7b:dd:5f:4d:11:4d:2f:df:f1:fb:33:ba:
         69:e4:fa:ef:d9:41:bc:b0:01:86:d4:9a:1e:86:fa:2f:ca:53:
         9c:c3:26:7e
-----BEGIN CERTIFICATE-----
MIIDijCCAnICAQIwDQYJKoZIhvcNAQEEBQAwgYExCzAJBgNVBAYTAlVTMQswCQYD
VQQIEwJDQTEVMBMGA1UEChMMT3BlbiB2U3dpdGNoMREwDwYDVQQLEwhzd2l0Y2hj
YTE7MDkGA1UEAxMyT1ZTIHN3aXRjaGNhIENBIENlcnRpZmljYXRlICgyMDE0IEFw
ciAxMCAxNTo1MTo1MCkwHhcNMTQwNDEwMTM1MTUyWhcNMjQwNDA3MTM1MTUyWjCB
kzELMAkGA1UEBhMCVVMxCzAJBgNVBAgTAkNBMRUwEwYDVQQKEwxPcGVuIHZTd2l0
Y2gxHzAdBgNVBAsTFk9wZW4gdlN3aXRjaCBjZXJ0aWZpZXIxPzA9BgNVBAMTNnRl
c3RzL3BraS90ZXN0IGlkOjdmODQ4MmI2LWMxMmEtNDdmMS1iMDdlLWNiNTg1ZGRi
MjdhOTCCASIwDQYJKoZIhvcNAQEBBQADggEPADCCAQoCggEBAKwzcA8IImjgZCCh
qIJWV73MsgnXtyEy6Y2qnhqma1dccL4AepO94xuCkw61RdmgbiW1DJsuT6xJa1MY
uZ+AGX/aa0vKBFyWFimtFrOrsQB75GhHP/m1vbygVBKhc6n+vXL6I+Y5dUpVdh3j
mcmgFjzsxKlWY0BCs6E/OplvPnMhg5iW0daLw2RcELnnHE8E5yo5QcmPGKsFmwfu
KcGOCZjBxenEovtvNmMpeSUhPkDrARp/csdMS/jhXmfWqE+91oY5mK7kr3kp1F7M
gOPl7VchJZfscSDujN4WoI2L97M9kDWDnEbuwCZwKN1ZhJSscwTRcYe1aNdBsMZz
0xm99/0CAwEAATANBgkqhkiG9w0BAQQFAAOCAQEASh2Naft4DGO5mBD/VaFuJXnL
YX8Nl1UkT/lgDuQdphZjXyUcLUGowUdzyp1Da0Fy2i+08GFNWDPxNIOuZEqAs/cC
hhxDpI/vQyWasgFofplC491Y6kKEGnkhY+nA0kwXiEi5TOMcRSXJaF0IL2VhhLau
QKJSPtwPzxb8btPwH6ADvggJPN1wxZUzp7oNU1cK/XVABLo8n2JIdb/cwCZDrICS
Qr6CqysMkhVH3Gi6E9pjxcK4CK1JVOFLi5zsGak3+7Y2d62A3PBny/W1QV/a8AS4
RAzPrpxhD0LZ7XF9e91fTRFNL9/x+zO6aeT679lBvLABhtSaHob6L8pTnMMmfg==
-----END CERTIFICATE-----
