Certificate Request:
    Data:
        Version: 0 (0x0)
        Subject: C=US, ST=CA, L=Palo Alto, O=Open vSwitch, OU=Open vSwitch certifier, CN=tests/pki/test2 id:9e028b60-e1de-46d7-b02c-20e118b45160
        Subject Public Key Info:
            Public Key Algorithm: rsaEncryption
                Public-Key: (2048 bit)
                Modulus:
                    00:bd:fc:ca:2c:9d:f1:88:d8:85:8f:3e:7b:3a:8c:
                    df:58:2b:4b:3b:a2:d9:62:df:ed:ae:50:6a:39:81:
                    52:23:44:d0:95:07:26:3a:17:13:6a:fd:a1:1e:47:
                    8e:4c:18:5f:62:dc:e7:1d:a6:a6:12:3c:6c:68:0e:
                    05:29:b5:7e:29:76:82:50:95:34:d3:10:98:86:38:
                    ab:8d:d8:2c:40:c7:de:bb:27:8d:1c:e5:ca:1c:a2:
                    00:e4:a7:73:be:a2:95:3d:6a:91:a4:f9:52:32:9d:
                    e5:07:c6:30:07:00:1a:95:4e:28:1b:51:25:6a:e0:
                    85:94:03:15:92:90:00:10:5d:32:0e:de:a8:22:00:
                    0f:53:8b:94:40:77:d9:ca:8d:f3:7c:49:3c:b3:7c:
                    26:86:cc:ce:a1:43:4a:28:0a:f4:cc:e2:9f:b2:7d:
                    15:43:47:5d:ad:20:ee:59:a0:c3:1e:dc:31:ec:72:
                    c5:e6:1b:0f:93:7e:13:a8:7d:95:00:5a:fe:cc:1e:
                    1e:dd:00:bb:ff:4c:40:3d:b9:67:96:63:cb:70:0a:
                    32:76:87:bc:b8:3e:1a:f8:1b:8f:4e:3d:0e:d7:c6:
                    e5:82:52:33:d9:c5:31:92:91:f1:9b:49:83:58:38:
                    21:60:ee:66:ee:81:1d:5c:15:b4:d9:36:cf:09:55:
                    d3:5f
                Exponent: 65537 (0x10001)
        Attributes:
            a0:00
    Signature Algorithm: sha1WithRSAEncryption
         b7:c4:bd:de:7c:cc:0f:d6:0f:4a:a2:79:99:29:2d:75:82:74:
         dd:4b:e1:25:62:67:7a:9f:11:c3:db:3d:30:fd:db:6a:2c:18:
         6e:58:28:29:e0:3e:f4:9d:2c:31:a2:a9:0f:d5:f3:88:4e:f8:
         76:37:c5:0f:5f:6c:c2:bd:fd:e8:28:6c:46:2a:45:6b:86:e6:
         28:fd:19:be:75:b2:54:4e:5d:26:c2:35:1e:af:ba:a7:48:75:
         d4:ab:c6:d8:7f:27:4f:8b:96:04:69:22:22:94:e3:82:73:33:
         5d:04:ac:35:3a:79:d8:dd:d5:e5:07:09:2a:08:20:16:3e:91:
         0e:7c:9e:f5:0d:0e:37:dc:03:14:db:ba:34:3f:94:44:91:fe:
         57:9b:c4:57:53:a3:a0:85:d0:2e:87:3f:e1:ad:02:19:52:df:
         9b:d2:95:8a:8b:4e:e6:7e:b0:2a:fa:da:fd:37:83:23:c7:5c:
         68:23:f8:4f:88:1b:3a:cc:63:6e:7a:22:34:63:0c:b8:67:8f:
         62:17:90:1f:71:08:27:b2:fa:4c:71:e7:88:9e:95:b5:5a:d6:
         21:7b:47:23:c8:0d:9a:b4:4f:eb:1c:8d:f8:a1:3e:47:49:68:
         c4:f7:f2:60:c4:6e:93:d5:c8:de:44:87:cd:2d:d8:4e:48:e0:
         65:c7:a3:b8
-----BEGIN CERTIFICATE REQUEST-----
MIIC7jCCAdYCAQAwgagxCzAJBgNVBAYTAlVTMQswCQYDVQQIEwJDQTESMBAGA1UE
BxMJUGFsbyBBbHRvMRUwEwYDVQQKEwxPcGVuIHZTd2l0Y2gxHzAdBgNVBAsTFk9w
ZW4gdlN3aXRjaCBjZXJ0aWZpZXIxQDA+BgNVBAMTN3Rlc3RzL3BraS90ZXN0MiBp
ZDo5ZTAyOGI2MC1lMWRlLTQ2ZDctYjAyYy0yMGUxMThiNDUxNjAwggEiMA0GCSqG
SIb3DQEBAQUAA4IBDwAwggEKAoIBAQC9/MosnfGI2IWPPns6jN9YK0s7otli3+2u
UGo5gVIjRNCVByY6FxNq/aEeR45MGF9i3OcdpqYSPGxoDgUptX4pdoJQlTTTEJiG
OKuN2CxAx967J40c5cocogDkp3O+opU9apGk+VIyneUHxjAHABqVTigbUSVq4IWU
AxWSkAAQXTIO3qgiAA9Ti5RAd9nKjfN8STyzfCaGzM6hQ0ooCvTM4p+yfRVDR12t
IO5ZoMMe3DHscsXmGw+TfhOofZUAWv7MHh7dALv/TEA9uWeWY8twCjJ2h7y4Phr4
G49OPQ7XxuWCUjPZxTGSkfGbSYNYOCFg7mbugR1cFbTZNs8JVdNfAgMBAAGgADAN
BgkqhkiG9w0BAQUFAAOCAQEAt8S93nzMD9YPSqJ5mSktdYJ03UvhJWJnep8Rw9s9
MP3baiwYblgoKeA+9J0sMaKpD9XziE74djfFD19swr396ChsRipFa4bmKP0ZvnWy
VE5dJsI1Hq+6p0h11KvG2H8nT4uWBGkiIpTjgnMzXQSsNTp52N3V5QcJKgggFj6R
Dnye9Q0ON9wDFNu6ND+URJH+V5vEV1OjoIXQLoc/4a0CGVLfm9KViotO5n6wKvra
/TeDI8dcaCP4T4gbOsxjbnoiNGMMuGePYheQH3EIJ7L6THHniJ6VtVrWIXtHI8gN
mrRP6xyN+KE+R0loxPfyYMRuk9XI3kSHzS3YTkjgZcejuA==
-----END CERTIFICATE REQUEST-----
