Certificate:
    Data:
        Version: 1 (0x0)
        Serial Number: 1 (0x1)
    Signature Algorithm: md5WithRSAEncryption
        Issuer: C=US, ST=CA, O=Open vSwitch, OU=controllerca, CN=OVS controllerca CA Certificate (2014 Apr 10 15:51:50)
        Validity
            Not Before: Apr 10 13:51:51 2014 GMT
            Not After : Apr  7 13:51:51 2024 GMT
        Subject: C=US, ST=CA, O=Open vSwitch, OU=controllerca, CN=OVS controllerca CA Certificate (2014 Apr 10 15:51:50)
        Subject Public Key Info:
            Public Key Algorithm: rsaEncryption
                Public-Key: (2048 bit)
                Modulus:
                    00:b2:08:52:b1:18:ba:2a:b2:52:bd:b8:8a:06:74:
                    68:16:d5:61:72:1e:67:77:d1:64:a2:d8:2a:fb:cf:
                    8f:eb:64:2b:19:3a:c0:f8:1e:da:02:8f:03:67:7f:
                    25:d1:a4:33:c5:1d:c6:59:33:5e:02:27:6b:c3:d0:
                    51:da:24:9e:f0:b8:42:52:50:ba:a8:10:21:6a:b6:
                    15:1f:24:09:6d:1f:dd:f9:a7:bc:21:34:31:a6:15:
                    85:77:b1:6c:6b:7b:96:e6:b4:21:a8:06:1e:0d:0a:
                    e1:66:c4:70:d5:52:87:b9:ed:6c:0f:b2:b8:93:0c:
                    96:ec:53:33:00:c0:a6:c2:3d:85:f6:51:3e:a7:ec:
                    de:e8:d7:e6:76:5c:8b:3f:29:17:3f:b9:7b:b2:b1:
                    48:bf:79:31:a2:a1:97:c2:51:d5:f7:85:4f:45:85:
                    2a:d1:e2:7a:3b:0d:30:b2:ea:a0:dc:45:d6:91:c7:
                    d5:97:56:f6:d9:80:4d:50:72:cf:21:68:fb:13:ee:
                    f4:4b:13:bc:87:c8:46:38:62:15:68:c7:08:b7:a7:
                    ca:c3:04:08:0a:aa:f8:19:68:29:1e:75:91:4c:db:
                    71:99:dc:4c:90:71:91:ce:8d:66:c9:b2:8f:a8:44:
                    95:80:8b:5c:11:7a:cf:d1:f7:3c:41:67:b2:ba:56:
                    b9:1d
                Exponent: 65537 (0x10001)
    Signature Algorithm: md5WithRSAEncryption
         35:be:8e:82:f7:52:8d:2c:22:62:83:5e:ab:6d:8a:30:cb:74:
         b2:bd:1f:4c:7d:77:05:78:28:8e:1d:7a:d6:bf:cf:7c:37:0f:
         f5:d9:02:79:02:29:0a:9f:eb:72:1d:f1:76:a3:e0:37:68:8f:
         28:6e:a3:2a:f2:1c:14:b0:96:2b:f8:46:3c:a7:a2:5d:c9:f4:
         3f:f4:7f:5c:bd:82:22:14:d1:9f:21:90:30:b0:47:ad:80:5a:
         50:3c:6f:d7:d6:63:d6:1f:33:7b:7a:4e:85:62:02:a9:5b:8a:
         12:02:69:12:48:4a:23:d0:a9:6f:b5:92:68:19:55:11:c4:03:
         b8:8c:93:0b:bd:a9:46:f6:c0:bc:8a:f0:76:6d:72:e5:7f:ba:
         03:e9:6a:b6:3f:d2:59:9a:ff:61:69:74:e5:23:74:ad:cc:ab:
         0a:07:1b:45:97:35:aa:a3:a9:fc:c1:b7:79:f2:0a:50:af:17:
         c9:48:0c:61:27:99:0c:31:2c:31:ed:39:65:de:ef:c6:3b:cd:
         6e:2a:ac:85:d4:9b:d3:4e:8b:c5:10:33:9f:a6:1e:60:da:e1:
         8f:21:35:39:a9:25:01:21:ce:8d:1d:c1:bf:4d:a3:a2:4e:9b:
         70:36:6c:76:6f:ef:06:96:8f:88:e9:10:58:91:62:01:dc:54:
         81:1d:57:fb
-----BEGIN CERTIFICATE-----
MIIDiDCCAnACAQEwDQYJKoZIhvcNAQEEBQAwgYkxCzAJBgNVBAYTAlVTMQswCQYD
VQQIEwJDQTEVMBMGA1UEChMMT3BlbiB2U3dpdGNoMRUwEwYDVQQLEwxjb250cm9s
bGVyY2ExPzA9BgNVBAMTNk9WUyBjb250cm9sbGVyY2EgQ0EgQ2VydGlmaWNhdGUg
KDIwMTQgQXByIDEwIDE1OjUxOjUwKTAeFw0xNDA0MTAxMzUxNTFaFw0yNDA0MDcx
MzUxNTFaMIGJMQswCQYDVQQGEwJVUzELMAkGA1UECBMCQ0ExFTATBgNVBAoTDE9w
ZW4gdlN3aXRjaDEVMBMGA1UECxMMY29udHJvbGxlcmNhMT8wPQYDVQQDEzZPVlMg
Y29udHJvbGxlcmNhIENBIENlcnRpZmljYXRlICgyMDE0IEFwciAxMCAxNTo1MTo1
MCkwggEiMA0GCSqGSIb3DQEBAQUAA4IBDwAwggEKAoIBAQCyCFKxGLoqslK9uIoG
dGgW1WFyHmd30WSi2Cr7z4/rZCsZOsD4HtoCjwNnfyXRpDPFHcZZM14CJ2vD0FHa
JJ7wuEJSULqoECFqthUfJAltH935p7whNDGmFYV3sWxre5bmtCGoBh4NCuFmxHDV
Uoe57WwPsriTDJbsUzMAwKbCPYX2UT6n7N7o1+Z2XIs/KRc/uXuysUi/eTGioZfC
UdX3hU9FhSrR4no7DTCy6qDcRdaRx9WXVvbZgE1Qcs8haPsT7vRLE7yHyEY4YhVo
xwi3p8rDBAgKqvgZaCkedZFM23GZ3EyQcZHOjWbJso+oRJWAi1wRes/R9zxBZ7K6
VrkdAgMBAAEwDQYJKoZIhvcNAQEEBQADggEBADW+joL3Uo0sImKDXqttijDLdLK9
H0x9dwV4KI4deta/z3w3D/XZAnkCKQqf63Id8Xaj4DdojyhuoyryHBSwliv4Rjyn
ol3J9D/0f1y9giIU0Z8hkDCwR62AWlA8b9fWY9YfM3t6ToViAqlbihICaRJISiPQ
qW+1kmgZVRHEA7iMkwu9qUb2wLyK8HZtcuV/ugPparY/0lma/2FpdOUjdK3MqwoH
G0WXNaqjqfzBt3nyClCvF8lIDGEnmQwxLDHtOWXe78Y7zW4qrIXUm9NOi8UQM5+m
HmDa4Y8hNTmpJQEhzo0dwb9No6JOm3A2bHZv7waWj4jpEFiRYgHcVIEdV/s=
-----END CERTIFICATE-----
