Certificate:
    Data:
        Version: 1 (0x0)
        Serial Number: 1 (0x1)
    Signature Algorithm: md5WithRSAEncryption
        Issuer: C=US, ST=CA, O=Open vSwitch, OU=switchca, CN=OVS switchca CA Certificate (2014 Apr 10 15:51:50)
        Validity
            Not Before: Apr 10 13:51:51 2014 GMT
            Not After : Apr  7 13:51:51 2024 GMT
        Subject: C=US, ST=CA, O=Open vSwitch, OU=switchca, CN=OVS switchca CA Certificate (2014 Apr 10 15:51:50)
        Subject Public Key Info:
            Public Key Algorithm: rsaEncryption
                Public-Key: (2048 bit)
                Modulus:
                    00:ac:54:e2:4c:11:8f:00:38:cd:13:eb:56:5a:1b:
                    f8:c4:43:d8:90:63:f1:22:80:d0:1c:18:fe:3c:09:
                    db:31:e6:28:05:bd:87:5c:a3:ef:b1:c5:65:c8:ca:
                    c2:47:42:16:25:9c:2a:49:64:a1:4b:41:b5:ca:5b:
                    92:7a:20:ad:f7:a7:fd:cb:fb:b7:ad:91:ff:20:07:
                    8b:2a:fd:8d:8a:b8:d5:36:0f:d5:be:0d:ea:3d:da:
                    cf:bd:6f:c1:99:05:57:ba:59:61:69:dc:6a:2f:a4:
                    3a:2f:22:bd:0d:db:b5:69:c5:1f:6f:e6:58:8e:3d:
                    77:76:04:7a:d3:61:08:f7:3a:05:c8:8e:93:84:d7:
                    cb:1e:36:1a:65:13:31:dc:68:28:09:64:67:30:c5:
                    79:7c:a9:83:4e:77:df:ee:0c:24:6e:63:f1:93:e2:
                    1a:b4:3b:f3:b4:e3:f6:9f:b5:15:6e:64:3d:4b:76:
                    d4:6f:4e:e0:fd:e1:51:ab:d5:1f:3a:3b:1c:49:47:
                    2c:34:71:ee:d2:a6:23:af:ea:4c:8e:4d:b8:58:5e:
                    f2:fa:d7:c7:05:1a:4c:cb:38:6d:4a:f3:81:7d:46:
                    db:35:e7:f3:c1:3e:fd:06:f4:21:1e:7d:1d:71:02:
                    6d:59:31:a3:f0:09:e7:55:64:91:58:a7:ce:52:83:
                    d2:9b
                Exponent: 65537 (0x10001)
    Signature Algorithm: md5WithRSAEncryption
         26:d3:e1:c5:74:a0:fe:b4:71:08:e1:2b:13:e5:e4:4e:af:1e:
         8e:cc:2d:60:29:44:72:cb:e2:20:12:95:b2:6a:96:1d:f6:17:
         94:88:b2:5a:07:4f:ba:f8:c9:b9:70:8b:a1:7e:f1:a6:25:95:
         62:ac:a1:b4:99:49:b4:d8:0f:e5:9b:ca:a1:5e:8a:d6:f6:6c:
         e7:1c:12:2f:67:e9:d3:75:d4:a3:63:ce:42:c5:e0:ab:d7:16:
         0c:09:ab:01:70:08:65:7c:ca:1a:f6:29:b4:c6:c5:18:a2:ed:
         4a:99:ee:9e:32:82:d9:07:a4:8a:fd:e3:96:27:3e:c7:f4:81:
         86:1d:3c:79:66:75:4b:8b:3f:34:a7:fa:bf:91:4f:99:4e:01:
         05:9a:f0:06:00:eb:83:ed:d4:5d:6f:3d:24:3f:c2:1f:a2:80:
         fa:f9:5a:1e:8e:d6:3a:ee:fb:e6:56:16:0e:4d:92:0e:64:44:
         00:98:90:c7:e9:88:5d:df:0c:75:58:26:dd:6d:1e:26:4c:4d:
         9d:39:1f:a2:8f:d0:68:cf:aa:7f:b1:0a:3a:d4:8d:95:c5:2e:
         b4:9f:34:60:90:d6:a0:95:25:bf:d2:29:89:d7:a6:93:5f:89:
         8b:15:b8:23:e0:57:b5:82:1b:ab:aa:bc:71:a1:10:16:58:10:
         46:67:6c:80
-----BEGIN CERTIFICATE-----
MIIDeDCCAmACAQEwDQYJKoZIhvcNAQEEBQAwgYExCzAJBgNVBAYTAlVTMQswCQYD
VQQIEwJDQTEVMBMGA1UEChMMT3BlbiB2U3dpdGNoMREwDwYDVQQLEwhzd2l0Y2hj
YTE7MDkGA1UEAxMyT1ZTIHN3aXRjaGNhIENBIENlcnRpZmljYXRlICgyMDE0IEFw
ciAxMCAxNTo1MTo1MCkwHhcNMTQwNDEwMTM1MTUxWhcNMjQwNDA3MTM1MTUxWjCB
gTELMAkGA1UEBhMCVVMxCzAJBgNVBAgTAkNBMRUwEwYDVQQKEwxPcGVuIHZTd2l0
Y2gxETAPBgNVBAsTCHN3aXRjaGNhMTswOQYDVQQDEzJPVlMgc3dpdGNoY2EgQ0Eg
Q2VydGlmaWNhdGUgKDIwMTQgQXByIDEwIDE1OjUxOjUwKTCCASIwDQYJKoZIhvcN
AQEBBQADggEPADCCAQoCggEBAKxU4kwRjwA4zRPrVlob+MRD2JBj8SKA0BwY/jwJ
2zHmKAW9h1yj77HFZcjKwkdCFiWcKklkoUtBtcpbknogrfen/cv7t62R/yAHiyr9
jYq41TYP1b4N6j3az71vwZkFV7pZYWncai+kOi8ivQ3btWnFH2/mWI49d3YEetNh
CPc6BciOk4TXyx42GmUTMdxoKAlkZzDFeXypg0533+4MJG5j8ZPiGrQ787Tj9p+1
FW5kPUt21G9O4P3hUavVHzo7HElHLDRx7tKmI6/qTI5NuFhe8vrXxwUaTMs4bUrz
gX1G2zXn88E+/Qb0IR59HXECbVkxo/AJ51VkkVinzlKD0psCAwEAATANBgkqhkiG
9w0BAQQFAAOCAQEAJtPhxXSg/rRxCOErE+XkTq8ejswtYClEcsviIBKVsmqWHfYX
lIiyWgdPuvjJuXCLoX7xpiWVYqyhtJlJtNgP5ZvKoV6K1vZs5xwSL2fp03XUo2PO
QsXgq9cWDAmrAXAIZXzKGvYptMbFGKLtSpnunjKC2Qekiv3jlic+x/SBhh08eWZ1
S4s/NKf6v5FPmU4BBZrwBgDrg+3UXW89JD/CH6KA+vlaHo7WOu775lYWDk2SDmRE
AJiQx+mIXd8MdVgm3W0eJkxNnTkfoo/QaM+qf7EKOtSNlcUutJ80YJDWoJUlv9Ip
idemk1+JixW4I+BXtYIbq6q8caEQFlgQRmdsgA==
-----END CERTIFICATE-----
